target datalayout = "e-m:e-p270:32:32-p271:32:32-p272:64:64-i64:64-i128:128-f80:128-n8:16:32:64-S128"
target triple = "x86_64-pc-linux-gnu"

%struct.slurmdb_assoc_rec = type { ptr, ptr, ptr, ptr, ptr, ptr, ptr, i32, i32, i32, i32, i32, ptr, ptr, ptr, ptr, ptr, ptr, i32, i32, i16, ptr, ptr, i32, i32, i32, ptr, ptr, ptr, ptr, ptr, ptr, ptr, ptr, i32, i32, ptr, i32, ptr, i32, ptr, i32, i32, ptr, ptr, ptr }
%struct.slurmdb_report_cluster_grouping_t = type { ptr, ptr, i32, ptr }
%struct.slurmdb_report_acct_grouping_t = type { ptr, i32, ptr, ptr, ptr }
%struct.slurmdb_report_job_grouping_t = type { i32, ptr, i32, i32, ptr }

@.str = private unnamed_addr constant [23 x i8] c"job_report_functions.c\00", align 1
@__func__._check_create_grouping = private unnamed_addr constant [23 x i8] c"_check_create_grouping\00", align 1

; Function Attrs: inlinehint nounwind willreturn memory(read) uwtable
define available_externally i32 @atoi(ptr noundef nonnull %0) #6 {
  %2 = alloca ptr, align 8
  store ptr %0, ptr %2, align 8
  %3 = load ptr, ptr %2, align 8
  %4 = call i64 @strtol(ptr noundef %3, ptr noundef null, i32 noundef 10) #7
  %5 = trunc i64 %4 to i32
  ret i32 %5
}

; Function Attrs: nounwind uwtable
define internal void @_check_create_grouping(ptr noundef %0, ptr noundef %1, ptr noundef %2, ptr noundef %3, ptr noundef %4, i1 noundef zeroext %5, i1 noundef zeroext %6) #0 {
  %8 = alloca ptr, align 8
  %9 = alloca ptr, align 8
  %10 = alloca ptr, align 8
  %11 = alloca ptr, align 8
  %12 = alloca ptr, align 8
  %13 = alloca i8, align 1
  %14 = alloca i8, align 1
  %15 = alloca ptr, align 8
  %16 = alloca ptr, align 8
  %17 = alloca ptr, align 8
  %18 = alloca ptr, align 8
  %19 = alloca ptr, align 8
  %20 = alloca i32, align 4
  %21 = alloca ptr, align 8
  store ptr %0, ptr %8, align 8
  store ptr %1, ptr %9, align 8
  store ptr %2, ptr %10, align 8
  store ptr %3, ptr %11, align 8
  store ptr %4, ptr %12, align 8
  %22 = zext i1 %5 to i8
  store i8 %22, ptr %13, align 1
  %23 = zext i1 %6 to i8
  store i8 %23, ptr %14, align 1
  call void @llvm.lifetime.start.p0(i64 8, ptr %15) #7
  call void @llvm.lifetime.start.p0(i64 8, ptr %16) #7
  %24 = load ptr, ptr %12, align 8
  store ptr %24, ptr %16, align 8
  call void @llvm.lifetime.start.p0(i64 8, ptr %17) #7
  store ptr null, ptr %17, align 8
  call void @llvm.lifetime.start.p0(i64 8, ptr %18) #7
  store ptr null, ptr %18, align 8
  call void @llvm.lifetime.start.p0(i64 8, ptr %19) #7
  store ptr null, ptr %19, align 8
  %25 = load ptr, ptr %8, align 8
  %26 = call ptr @list_iterator_create(ptr noundef %25)
  store ptr %26, ptr %15, align 8
  br label %27

27:                                               ; preds = %39, %7
  %28 = load ptr, ptr %15, align 8
  %29 = call ptr @list_next(ptr noundef %28)
  store ptr %29, ptr %17, align 8
  %30 = icmp ne ptr %29, null
  br i1 %30, label %31, label %40

31:                                               ; preds = %27
  %32 = load ptr, ptr %10, align 8
  %33 = load ptr, ptr %17, align 8
  %34 = getelementptr inbounds nuw %struct.slurmdb_report_cluster_grouping_t, ptr %33, i32 0, i32 1
  %35 = load ptr, ptr %34, align 8
  %36 = call i32 @xstrcmp(ptr noundef %32, ptr noundef %35)
  %37 = icmp ne i32 %36, 0
  br i1 %37, label %39, label %38

38:                                               ; preds = %31
  br label %40

39:                                               ; preds = %31
  br label %27, !llvm.loop !23

40:                                               ; preds = %38, %27
  %41 = load ptr, ptr %15, align 8
  call void @list_iterator_destroy(ptr noundef %41)
  %42 = load ptr, ptr %17, align 8
  %43 = icmp ne ptr %42, null
  br i1 %43, label %55, label %44

44:                                               ; preds = %40
  %45 = call ptr @slurm_xcalloc(i64 noundef 1, i64 noundef 32, i1 noundef zeroext true, i1 noundef zeroext false, ptr noundef @.str, i32 noundef 82, ptr noundef @__func__._check_create_grouping)
  store ptr %45, ptr %17, align 8
  %46 = load ptr, ptr %10, align 8
  %47 = call ptr @xstrdup(ptr noundef %46)
  %48 = load ptr, ptr %17, align 8
  %49 = getelementptr inbounds nuw %struct.slurmdb_report_cluster_grouping_t, ptr %48, i32 0, i32 1
  store ptr %47, ptr %49, align 8
  %50 = call ptr @list_create(ptr noundef @slurmdb_destroy_report_acct_grouping)
  %51 = load ptr, ptr %17, align 8
  %52 = getelementptr inbounds nuw %struct.slurmdb_report_cluster_grouping_t, ptr %51, i32 0, i32 0
  store ptr %50, ptr %52, align 8
  %53 = load ptr, ptr %8, align 8
  %54 = load ptr, ptr %17, align 8
  call void @list_append(ptr noundef %53, ptr noundef %54)
  br label %55

55:                                               ; preds = %44, %40
  %56 = load ptr, ptr %17, align 8
  %57 = getelementptr inbounds nuw %struct.slurmdb_report_cluster_grouping_t, ptr %56, i32 0, i32 0
  %58 = load ptr, ptr %57, align 8
  %59 = call ptr @list_iterator_create(ptr noundef %58)
  store ptr %59, ptr %15, align 8
  br label %60

60:                                               ; preds = %72, %55
  %61 = load ptr, ptr %15, align 8
  %62 = call ptr @list_next(ptr noundef %61)
  store ptr %62, ptr %18, align 8
  %63 = icmp ne ptr %62, null
  br i1 %63, label %64, label %73

64:                                               ; preds = %60
  %65 = load ptr, ptr %11, align 8
  %66 = load ptr, ptr %18, align 8
  %67 = getelementptr inbounds nuw %struct.slurmdb_report_acct_grouping_t, ptr %66, i32 0, i32 0
  %68 = load ptr, ptr %67, align 8
  %69 = call i32 @xstrcmp(ptr noundef %65, ptr noundef %68)
  %70 = icmp ne i32 %69, 0
  br i1 %70, label %72, label %71

71:                                               ; preds = %64
  br label %73

72:                                               ; preds = %64
  br label %60, !llvm.loop !24

73:                                               ; preds = %71, %60
  %74 = load ptr, ptr %15, align 8
  call void @list_iterator_destroy(ptr noundef %74)
  %75 = load ptr, ptr %18, align 8
  %76 = icmp ne ptr %75, null
  br i1 %76, label %158, label %77

77:                                               ; preds = %73
  call void @llvm.lifetime.start.p0(i64 4, ptr %20) #7
  store i32 0, ptr %20, align 4
  call void @llvm.lifetime.start.p0(i64 8, ptr %21) #7
  store ptr null, ptr %21, align 8
  %78 = call ptr @slurm_xcalloc(i64 noundef 1, i64 noundef 40, i1 noundef zeroext true, i1 noundef zeroext false, ptr noundef @.str, i32 noundef 99, ptr noundef @__func__._check_create_grouping)
  store ptr %78, ptr %18, align 8
  %79 = load ptr, ptr %11, align 8
  %80 = call ptr @xstrdup(ptr noundef %79)
  %81 = load ptr, ptr %18, align 8
  %82 = getelementptr inbounds nuw %struct.slurmdb_report_acct_grouping_t, ptr %81, i32 0, i32 0
  store ptr %80, ptr %82, align 8
  %83 = load i8, ptr %14, align 1, !range !8, !noundef !9
  %84 = trunc i8 %83 to i1
  br i1 %84, label %92, label %85

85:                                               ; preds = %77
  %86 = load ptr, ptr %16, align 8
  %87 = getelementptr inbounds nuw %struct.slurmdb_assoc_rec, ptr %86, i32 0, i32 22
  %88 = load ptr, ptr %87, align 8
  %89 = call ptr @xstrdup(ptr noundef %88)
  %90 = load ptr, ptr %18, align 8
  %91 = getelementptr inbounds nuw %struct.slurmdb_report_acct_grouping_t, ptr %90, i32 0, i32 3
  store ptr %89, ptr %91, align 8
  br label %92

92:                                               ; preds = %85, %77
  %93 = call ptr @list_create(ptr noundef @slurmdb_destroy_report_job_grouping)
  %94 = load ptr, ptr %18, align 8
  %95 = getelementptr inbounds nuw %struct.slurmdb_report_acct_grouping_t, ptr %94, i32 0, i32 2
  store ptr %93, ptr %95, align 8
  %96 = load ptr, ptr %17, align 8
  %97 = getelementptr inbounds nuw %struct.slurmdb_report_cluster_grouping_t, ptr %96, i32 0, i32 0
  %98 = load ptr, ptr %97, align 8
  %99 = load ptr, ptr %18, align 8
  call void @list_append(ptr noundef %98, ptr noundef %99)
  br label %100

100:                                              ; preds = %131, %92
  %101 = load ptr, ptr %9, align 8
  %102 = call ptr @list_next(ptr noundef %101)
  store ptr %102, ptr %21, align 8
  %103 = icmp ne ptr %102, null
  br i1 %103, label %104, label %136

104:                                              ; preds = %100
  %105 = call ptr @slurm_xcalloc(i64 noundef 1, i64 noundef 32, i1 noundef zeroext true, i1 noundef zeroext false, ptr noundef @.str, i32 noundef 110, ptr noundef @__func__._check_create_grouping)
  store ptr %105, ptr %19, align 8
  %106 = call ptr @list_create(ptr noundef null)
  %107 = load ptr, ptr %19, align 8
  %108 = getelementptr inbounds nuw %struct.slurmdb_report_job_grouping_t, ptr %107, i32 0, i32 1
  store ptr %106, ptr %108, align 8
  %109 = load i8, ptr %13, align 1, !range !8, !noundef !9
  %110 = trunc i8 %109 to i1
  br i1 %110, label %115, label %111

111:                                              ; preds = %104
  %112 = load i32, ptr %20, align 4
  %113 = load ptr, ptr %19, align 8
  %114 = getelementptr inbounds nuw %struct.slurmdb_report_job_grouping_t, ptr %113, i32 0, i32 2
  store i32 %112, ptr %114, align 8
  br label %115

115:                                              ; preds = %111, %104
  %116 = load ptr, ptr %21, align 8
  %117 = call i32 @atoi(ptr noundef %116) #8
  store i32 %117, ptr %20, align 4
  %118 = load i8, ptr %13, align 1, !range !8, !noundef !9
  %119 = trunc i8 %118 to i1
  br i1 %119, label %125, label %120

120:                                              ; preds = %115
  %121 = load i32, ptr %20, align 4
  %122 = sub i32 %121, 1
  %123 = load ptr, ptr %19, align 8
  %124 = getelementptr inbounds nuw %struct.slurmdb_report_job_grouping_t, ptr %123, i32 0, i32 3
  store i32 %122, ptr %124, align 4
  br label %131

125:                                              ; preds = %115
  %126 = load i32, ptr %20, align 4
  %127 = load ptr, ptr %19, align 8
  %128 = getelementptr inbounds nuw %struct.slurmdb_report_job_grouping_t, ptr %127, i32 0, i32 3
  store i32 %126, ptr %128, align 4
  %129 = load ptr, ptr %19, align 8
  %130 = getelementptr inbounds nuw %struct.slurmdb_report_job_grouping_t, ptr %129, i32 0, i32 2
  store i32 %126, ptr %130, align 8
  br label %131

131:                                              ; preds = %125, %120
  %132 = load ptr, ptr %18, align 8
  %133 = getelementptr inbounds nuw %struct.slurmdb_report_acct_grouping_t, ptr %132, i32 0, i32 2
  %134 = load ptr, ptr %133, align 8
  %135 = load ptr, ptr %19, align 8
  call void @list_append(ptr noundef %134, ptr noundef %135)
  br label %100, !llvm.loop !25

136:                                              ; preds = %100
  %137 = load i32, ptr %20, align 4
  %138 = icmp ne i32 %137, 0
  br i1 %138, label %139, label %156

139:                                              ; preds = %136
  %140 = load i8, ptr %13, align 1, !range !8, !noundef !9
  %141 = trunc i8 %140 to i1
  br i1 %141, label %156, label %142

142:                                              ; preds = %139
  %143 = call ptr @slurm_xcalloc(i64 noundef 1, i64 noundef 32, i1 noundef zeroext true, i1 noundef zeroext false, ptr noundef @.str, i32 noundef 124, ptr noundef @__func__._check_create_grouping)
  store ptr %143, ptr %19, align 8
  %144 = call ptr @list_create(ptr noundef null)
  %145 = load ptr, ptr %19, align 8
  %146 = getelementptr inbounds nuw %struct.slurmdb_report_job_grouping_t, ptr %145, i32 0, i32 1
  store ptr %144, ptr %146, align 8
  %147 = load i32, ptr %20, align 4
  %148 = load ptr, ptr %19, align 8
  %149 = getelementptr inbounds nuw %struct.slurmdb_report_job_grouping_t, ptr %148, i32 0, i32 2
  store i32 %147, ptr %149, align 8
  %150 = load ptr, ptr %19, align 8
  %151 = getelementptr inbounds nuw %struct.slurmdb_report_job_grouping_t, ptr %150, i32 0, i32 3
  store i32 -1, ptr %151, align 4
  %152 = load ptr, ptr %18, align 8
  %153 = getelementptr inbounds nuw %struct.slurmdb_report_acct_grouping_t, ptr %152, i32 0, i32 2
  %154 = load ptr, ptr %153, align 8
  %155 = load ptr, ptr %19, align 8
  call void @list_append(ptr noundef %154, ptr noundef %155)
  br label %156

156:                                              ; preds = %142, %139, %136
  %157 = load ptr, ptr %9, align 8
  call void @list_iterator_reset(ptr noundef %157)
  call void @llvm.lifetime.end.p0(i64 8, ptr %21) #7
  call void @llvm.lifetime.end.p0(i64 4, ptr %20) #7
  br label %158

158:                                              ; preds = %156, %73
  call void @llvm.lifetime.end.p0(i64 8, ptr %19) #7
  call void @llvm.lifetime.end.p0(i64 8, ptr %18) #7
  call void @llvm.lifetime.end.p0(i64 8, ptr %17) #7
  call void @llvm.lifetime.end.p0(i64 8, ptr %16) #7
  call void @llvm.lifetime.end.p0(i64 8, ptr %15) #7
  ret void
}