; Function Attrs: nounwind uwtable
define internal fastcc void @_check_create_grouping(ptr noundef %0, ptr noundef %1, ptr noundef %2, ptr noundef %3, ptr noundef readonly captures(none) %4, i1 noundef zeroext %5, i1 noundef zeroext %6) unnamed_addr #0 {
  %8 = tail call ptr @list_iterator_create(ptr noundef %0) #11
  br label %9

9:                                                ; preds = %11, %7
  %10 = tail call ptr @list_next(ptr noundef %8) #11
  %.not = icmp eq ptr %10, null
  br i1 %.not, label %16, label %11

11:                                               ; preds = %9
  %12 = getelementptr inbounds nuw i8, ptr %10, i64 8
  %13 = load ptr, ptr %12, align 8
  %14 = tail call i32 @xstrcmp(ptr noundef %2, ptr noundef %13) #11
  %.not52 = icmp eq i32 %14, 0
  br i1 %.not52, label %15, label %9, !llvm.loop !28

15:                                               ; preds = %11
  tail call void @list_iterator_destroy(ptr noundef %8) #11
  br label %21

16:                                               ; preds = %9
  tail call void @list_iterator_destroy(ptr noundef %8) #11
  %17 = tail call ptr @slurm_xcalloc(i64 noundef 1, i64 noundef 32, i1 noundef zeroext true, i1 noundef zeroext false, ptr noundef nonnull @.str, i32 noundef 82, ptr noundef nonnull @__func__._check_create_grouping) #11
  %18 = tail call ptr @xstrdup(ptr noundef %2) #11
  %19 = getelementptr inbounds nuw i8, ptr %17, i64 8
  store ptr %18, ptr %19, align 8
  %20 = tail call ptr @list_create(ptr noundef nonnull @slurmdb_destroy_report_acct_grouping) #11
  store ptr %20, ptr %17, align 8
  tail call void @list_append(ptr noundef %0, ptr noundef nonnull %17) #11
  br label %21

21:                                               ; preds = %15, %16
  %.048 = phi ptr [ %10, %15 ], [ %17, %16 ]
  %22 = load ptr, ptr %.048, align 8
  %23 = tail call ptr @list_iterator_create(ptr noundef %22) #11
  br label %24

24:                                               ; preds = %26, %21
  %25 = tail call ptr @list_next(ptr noundef %23) #11
  %.not53 = icmp eq ptr %25, null
  br i1 %.not53, label %30, label %26

26:                                               ; preds = %24
  %27 = load ptr, ptr %25, align 8
  %28 = tail call i32 @xstrcmp(ptr noundef %3, ptr noundef %27) #11
  %.not54 = icmp eq i32 %28, 0
  br i1 %.not54, label %29, label %24, !llvm.loop !29

29:                                               ; preds = %26
  tail call void @list_iterator_destroy(ptr noundef %23) #11
  br label %71

30:                                               ; preds = %24
  tail call void @list_iterator_destroy(ptr noundef %23) #11
  %31 = tail call ptr @slurm_xcalloc(i64 noundef 1, i64 noundef 40, i1 noundef zeroext true, i1 noundef zeroext false, ptr noundef nonnull @.str, i32 noundef 99, ptr noundef nonnull @__func__._check_create_grouping) #11
  %32 = tail call ptr @xstrdup(ptr noundef %3) #11
  store ptr %32, ptr %31, align 8
  br i1 %6, label %38, label %33

33:                                               ; preds = %30
  %34 = getelementptr inbounds nuw i8, ptr %4, i64 152
  %35 = load ptr, ptr %34, align 8
  %36 = tail call ptr @xstrdup(ptr noundef %35) #11
  %37 = getelementptr inbounds nuw i8, ptr %31, i64 24
  store ptr %36, ptr %37, align 8
  br label %38

38:                                               ; preds = %33, %30
  %39 = tail call ptr @list_create(ptr noundef nonnull @slurmdb_destroy_report_job_grouping) #11
  %40 = getelementptr inbounds nuw i8, ptr %31, i64 16
  store ptr %39, ptr %40, align 8
  %41 = load ptr, ptr %.048, align 8
  tail call void @list_append(ptr noundef %41, ptr noundef nonnull %31) #11
  %42 = tail call ptr @list_next(ptr noundef %1) #11
  %.not5560 = icmp eq ptr %42, null
  br i1 %.not5560, label %._crit_edge.thread, label %.lr.ph

.lr.ph:                                           ; preds = %38
  br i1 %5, label %.lr.ph.split.us, label %.lr.ph.split

.lr.ph.split.us:                                  ; preds = %.lr.ph, %.lr.ph.split.us
  %43 = phi ptr [ %52, %.lr.ph.split.us ], [ %42, %.lr.ph ]
  %44 = tail call ptr @slurm_xcalloc(i64 noundef 1, i64 noundef 32, i1 noundef zeroext true, i1 noundef zeroext false, ptr noundef nonnull @.str, i32 noundef 110, ptr noundef nonnull @__func__._check_create_grouping) #11
  %45 = tail call ptr @list_create(ptr noundef null) #11
  %46 = getelementptr inbounds nuw i8, ptr %44, i64 8
  store ptr %45, ptr %46, align 8
  %47 = tail call i64 @strtol(ptr noundef nonnull captures(none) %43, ptr noundef null, i32 noundef 10) #11
  %48 = trunc i64 %47 to i32
  %49 = getelementptr inbounds nuw i8, ptr %44, i64 20
  store i32 %48, ptr %49, align 4
  %50 = getelementptr inbounds nuw i8, ptr %44, i64 16
  store i32 %48, ptr %50, align 8
  %51 = load ptr, ptr %40, align 8
  tail call void @list_append(ptr noundef %51, ptr noundef nonnull %44) #11
  %52 = tail call ptr @list_next(ptr noundef %1) #11
  %.not55.us = icmp eq ptr %52, null
  br i1 %.not55.us, label %._crit_edge, label %.lr.ph.split.us, !llvm.loop !30

.lr.ph.split:                                     ; preds = %.lr.ph, %.lr.ph.split
  %53 = phi ptr [ %63, %.lr.ph.split ], [ %42, %.lr.ph ]
  %.061 = phi i32 [ %59, %.lr.ph.split ], [ 0, %.lr.ph ]
  %54 = tail call ptr @slurm_xcalloc(i64 noundef 1, i64 noundef 32, i1 noundef zeroext true, i1 noundef zeroext false, ptr noundef nonnull @.str, i32 noundef 110, ptr noundef nonnull @__func__._check_create_grouping) #11
  %55 = tail call ptr @list_create(ptr noundef null) #11
  %56 = getelementptr inbounds nuw i8, ptr %54, i64 8
  store ptr %55, ptr %56, align 8
  %57 = getelementptr inbounds nuw i8, ptr %54, i64 16
  store i32 %.061, ptr %57, align 8
  %58 = tail call i64 @strtol(ptr noundef nonnull captures(none) %53, ptr noundef null, i32 noundef 10) #11
  %59 = trunc i64 %58 to i32
  %60 = add i32 %59, -1
  %61 = getelementptr inbounds nuw i8, ptr %54, i64 20
  store i32 %60, ptr %61, align 4
  %62 = load ptr, ptr %40, align 8
  tail call void @list_append(ptr noundef %62, ptr noundef nonnull %54) #11
  %63 = tail call ptr @list_next(ptr noundef %1) #11
  %.not55 = icmp eq ptr %63, null
  br i1 %.not55, label %._crit_edge, label %.lr.ph.split, !llvm.loop !30

._crit_edge:                                      ; preds = %.lr.ph.split, %.lr.ph.split.us
  %.0.lcssa = phi i32 [ %48, %.lr.ph.split.us ], [ %59, %.lr.ph.split ]
  %.not56 = icmp eq i32 %.0.lcssa, 0
  %brmerge = or i1 %5, %.not56
  br i1 %brmerge, label %._crit_edge.thread, label %64

64:                                               ; preds = %._crit_edge
  %65 = tail call ptr @slurm_xcalloc(i64 noundef 1, i64 noundef 32, i1 noundef zeroext true, i1 noundef zeroext false, ptr noundef nonnull @.str, i32 noundef 124, ptr noundef nonnull @__func__._check_create_grouping) #11
  %66 = tail call ptr @list_create(ptr noundef null) #11
  %67 = getelementptr inbounds nuw i8, ptr %65, i64 8
  store ptr %66, ptr %67, align 8
  %68 = getelementptr inbounds nuw i8, ptr %65, i64 16
  store i32 %.0.lcssa, ptr %68, align 8
  %69 = getelementptr inbounds nuw i8, ptr %65, i64 20
  store i32 -1, ptr %69, align 4
  %70 = load ptr, ptr %40, align 8
  tail call void @list_append(ptr noundef %70, ptr noundef %65) #11
  br label %._crit_edge.thread

._crit_edge.thread:                               ; preds = %38, %._crit_edge, %64
  tail call void @list_iterator_reset(ptr noundef %1) #11
  br label %71

71:                                               ; preds = %29, %._crit_edge.thread
  ret void
}